; Function Attrs: mustprogress uwtable
define void @_ZN2cv18GStreamingCompiled4Priv4pullEv(ptr dead_on_unwind noalias writable sret(%"class.std::tuple.39") align 8 %0, ptr noundef nonnull readonly align 8 captures(none) dereferenceable(104) %1) local_unnamed_addr #3 align 2 {
  %3 = getelementptr inbounds nuw i8, ptr %1, i64 48
  %4 = load ptr, ptr %3, align 8, !tbaa !3
  %5 = load ptr, ptr %4, align 8, !tbaa !8
  %6 = getelementptr inbounds nuw i8, ptr %5, i64 48
  %7 = load ptr, ptr %6, align 8
  tail call void %7(ptr dead_on_unwind writable sret(%"class.std::tuple.39") align 8 %0, ptr noundef nonnull align 8 dereferenceable(137) %4)
  ret void
}